target datalayout = "e-m:e-p270:32:32-p271:32:32-p272:64:64-i64:64-i128:128-f80:128-n8:16:32:64-S128"
target triple = "x86_64-unknown-linux-gnu"

%"class.sat::elim_eqs" = type { %class.svector, ptr, ptr }
%class.svector = type { %class.vector }
%class.vector = type { ptr }

; Function Attrs: mustprogress nounwind uwtable
define linkonce_odr hidden void @_ZN6vectorIN3sat8elim_eqs3binELb0EjEC2Ev(ptr noundef nonnull align 8 dereferenceable(8) %this) unnamed_addr #4 comdat align 2 {
entry:
  %this.addr = alloca ptr, align 8
  store ptr %this, ptr %this.addr, align 8
  %this1 = load ptr, ptr %this.addr, align 8
  %m_data = getelementptr inbounds %class.vector, ptr %this1, i32 0, i32 0
  store ptr null, ptr %m_data, align 8
  ret void
}

; Function Attrs: mustprogress nounwind uwtable
define linkonce_odr hidden void @_ZN7svectorIN3sat8elim_eqs3binEjEC2Ev(ptr noundef nonnull align 8 dereferenceable(8) %this) unnamed_addr #4 comdat align 2 {
entry:
  %this.addr = alloca ptr, align 8
  store ptr %this, ptr %this.addr, align 8
  %this1 = load ptr, ptr %this.addr, align 8
  %0 = getelementptr inbounds i8, ptr %this1, i64 0
  call void @llvm.memset.p0.i64(ptr align 8 %0, i8 0, i64 8, i1 false)
  call void @_ZN6vectorIN3sat8elim_eqs3binELb0EjEC2Ev(ptr noundef nonnull align 8 dereferenceable(8) %this1) #3
  ret void
}

; Function Attrs: mustprogress uwtable
define hidden void @_ZN3sat8elim_eqsC2ERNS_6solverE(ptr noundef nonnull align 8 dereferenceable(24) %this, ptr noundef nonnull align 8 dereferenceable(4408) %s) unnamed_addr #5 align 2 {
entry:
  %this.addr = alloca ptr, align 8
  %s.addr = alloca ptr, align 8
  store ptr %this, ptr %this.addr, align 8
  store ptr %s, ptr %s.addr, align 8
  %this1 = load ptr, ptr %this.addr, align 8
  %m_new_bin = getelementptr inbounds %"class.sat::elim_eqs", ptr %this1, i32 0, i32 0
  call void @_ZN7svectorIN3sat8elim_eqs3binEjEC2Ev(ptr noundef nonnull align 8 dereferenceable(8) %m_new_bin)
  %m_solver = getelementptr inbounds %"class.sat::elim_eqs", ptr %this1, i32 0, i32 1
  %0 = load ptr, ptr %s.addr, align 8
  store ptr %0, ptr %m_solver, align 8
  %m_to_delete = getelementptr inbounds %"class.sat::elim_eqs", ptr %this1, i32 0, i32 2
  store ptr null, ptr %m_to_delete, align 8
  ret void
}