; Function Attrs: mustprogress nofree norecurse nosync nounwind willreturn memory(argmem: write) uwtable
define hidden void @_ZN3sat8elim_eqsC2ERNS_6solverE(ptr nocapture noundef nonnull writeonly align 8 dereferenceable(24) %this, ptr noundef nonnull align 8 dereferenceable(4408) %s) unnamed_addr #3 align 2 {
entry:
  store ptr null, ptr %this, align 8
  %m_solver = getelementptr inbounds i8, ptr %this, i64 8
  store ptr %s, ptr %m_solver, align 8
  %m_to_delete = getelementptr inbounds i8, ptr %this, i64 16
  store ptr null, ptr %m_to_delete, align 8
  ret void
}